{
   <insert_a_suppression_name_here>
   Memcheck:Leak
   match-leak-kinds: possible
   fun:malloc
   fun:_ZN13list_array_ttI8method_t13method_list_tE11attachListsEPKPS1_j
   fun:_ZL16attachCategoriesP10objc_classP26locstamped_category_list_tb
   fun:_ZL12realizeClassP10objc_class
   fun:_ZL12realizeClassP10objc_class
   fun:look_up_class
   fun:objc_getFutureClass
   fun:__CFInitialize
   fun:_ZN16ImageLoaderMachO11doImageInitERKN11ImageLoader11LinkContextE
   fun:_ZN16ImageLoaderMachO16doInitializationERKN11ImageLoader11LinkContextE
   fun:_ZN11ImageLoader23recursiveInitializationERKNS_11LinkContextEjPKcRNS_21InitializerTimingListERNS_15UninitedUpwardsE
   fun:_ZN11ImageLoader23recursiveInitializationERKNS_11LinkContextEjPKcRNS_21InitializerTimingListERNS_15UninitedUpwardsE
}
{
   <insert_a_suppression_name_here>
   Memcheck:Leak
   match-leak-kinds: possible
   fun:malloc
   fun:_ZN13list_array_ttIm15protocol_list_tE11attachListsEPKPS0_j
   fun:_ZL16attachCategoriesP10objc_classP26locstamped_category_list_tb
   fun:_ZL12realizeClassP10objc_class
   fun:_ZL12realizeClassP10objc_class
   fun:look_up_class
   fun:objc_getFutureClass
   fun:__CFInitialize
   fun:_ZN16ImageLoaderMachO11doImageInitERKN11ImageLoader11LinkContextE
   fun:_ZN16ImageLoaderMachO16doInitializationERKN11ImageLoader11LinkContextE
   fun:_ZN11ImageLoader23recursiveInitializationERKNS_11LinkContextEjPKcRNS_21InitializerTimingListERNS_15UninitedUpwardsE
   fun:_ZN11ImageLoader23recursiveInitializationERKNS_11LinkContextEjPKcRNS_21InitializerTimingListERNS_15UninitedUpwardsE
}
{
   <insert_a_suppression_name_here>
   Memcheck:Leak
   match-leak-kinds: possible
   fun:malloc
   fun:_ZN13list_array_ttIm15protocol_list_tE11attachListsEPKPS0_j
   fun:_ZL16attachCategoriesP10objc_classP26locstamped_category_list_tb
   fun:_ZL12realizeClassP10objc_class
   fun:look_up_class
   fun:objc_getFutureClass
   fun:__CFInitialize
   fun:_ZN16ImageLoaderMachO11doImageInitERKN11ImageLoader11LinkContextE
   fun:_ZN16ImageLoaderMachO16doInitializationERKN11ImageLoader11LinkContextE
   fun:_ZN11ImageLoader23recursiveInitializationERKNS_11LinkContextEjPKcRNS_21InitializerTimingListERNS_15UninitedUpwardsE
   fun:_ZN11ImageLoader23recursiveInitializationERKNS_11LinkContextEjPKcRNS_21InitializerTimingListERNS_15UninitedUpwardsE
   fun:_ZN11ImageLoader23recursiveInitializationERKNS_11LinkContextEjPKcRNS_21InitializerTimingListERNS_15UninitedUpwardsE
}
{
   <insert_a_suppression_name_here>
   Memcheck:Leak
   match-leak-kinds: possible
   fun:malloc
   fun:_ZN13list_array_ttIm15protocol_list_tE11attachListsEPKPS0_j
   fun:_ZL16attachCategoriesP10objc_classP26locstamped_category_list_tb
   fun:_ZL12realizeClassP10objc_class
   fun:_ZL12realizeClassP10objc_class
   fun:_ZL12realizeClassP10objc_class
   fun:_ZL12realizeClassP10objc_class
   fun:look_up_class
   fun:objc_getFutureClass
   fun:__CFInitialize
   fun:_ZN16ImageLoaderMachO11doImageInitERKN11ImageLoader11LinkContextE
   fun:_ZN16ImageLoaderMachO16doInitializationERKN11ImageLoader11LinkContextE
}
{
   <insert_a_suppression_name_here>
   Memcheck:Leak
   match-leak-kinds: possible
   fun:malloc
   fun:_ZN13list_array_ttI10property_t15property_list_tE11attachListsEPKPS1_j
   fun:_ZL16attachCategoriesP10objc_classP26locstamped_category_list_tb
   fun:_ZL12realizeClassP10objc_class
   fun:_ZL12realizeClassP10objc_class
   fun:_ZL12realizeClassP10objc_class
   fun:look_up_class
   fun:objc_getFutureClass
   fun:__CFInitialize
   fun:_ZN16ImageLoaderMachO11doImageInitERKN11ImageLoader11LinkContextE
   fun:_ZN16ImageLoaderMachO16doInitializationERKN11ImageLoader11LinkContextE
   fun:_ZN11ImageLoader23recursiveInitializationERKNS_11LinkContextEjPKcRNS_21InitializerTimingListERNS_15UninitedUpwardsE
}
{
   <insert_a_suppression_name_here>
   Memcheck:Leak
   match-leak-kinds: possible
   fun:malloc
   fun:_ZN13list_array_ttIm15protocol_list_tE11attachListsEPKPS0_j
   fun:_ZL16attachCategoriesP10objc_classP26locstamped_category_list_tb
   fun:_ZL12realizeClassP10objc_class
   fun:_ZL12realizeClassP10objc_class
   fun:_ZL12realizeClassP10objc_class
   fun:look_up_class
   fun:objc_getFutureClass
   fun:__CFInitialize
   fun:_ZN16ImageLoaderMachO11doImageInitERKN11ImageLoader11LinkContextE
   fun:_ZN16ImageLoaderMachO16doInitializationERKN11ImageLoader11LinkContextE
   fun:_ZN11ImageLoader23recursiveInitializationERKNS_11LinkContextEjPKcRNS_21InitializerTimingListERNS_15UninitedUpwardsE
}
{
   <insert_a_suppression_name_here>
   Memcheck:Leak
   match-leak-kinds: possible
   fun:malloc
   fun:_ZN13list_array_ttI8method_t13method_list_tE11attachListsEPKPS1_j
   fun:_ZL16attachCategoriesP10objc_classP26locstamped_category_list_tb
   fun:_ZL12realizeClassP10objc_class
   fun:_ZL12realizeClassP10objc_class
   fun:_ZL12realizeClassP10objc_class
   fun:look_up_class
   fun:objc_getFutureClass
   fun:__CFInitialize
   fun:_ZN16ImageLoaderMachO11doImageInitERKN11ImageLoader11LinkContextE
   fun:_ZN16ImageLoaderMachO16doInitializationERKN11ImageLoader11LinkContextE
   fun:_ZN11ImageLoader23recursiveInitializationERKNS_11LinkContextEjPKcRNS_21InitializerTimingListERNS_15UninitedUpwardsE
}
{
   <insert_a_suppression_name_here>
   Memcheck:Leak
   match-leak-kinds: possible
   fun:malloc
   fun:_ZN13list_array_ttIm15protocol_list_tE11attachListsEPKPS0_j
   fun:_ZL16attachCategoriesP10objc_classP26locstamped_category_list_tb
   fun:_ZL12realizeClassP10objc_class
   fun:_ZL12realizeClassP10objc_class
   fun:look_up_class
   fun:objc_getFutureClass
   fun:__CFInitialize
   fun:_ZN16ImageLoaderMachO11doImageInitERKN11ImageLoader11LinkContextE
   fun:_ZN16ImageLoaderMachO16doInitializationERKN11ImageLoader11LinkContextE
   fun:_ZN11ImageLoader23recursiveInitializationERKNS_11LinkContextEjPKcRNS_21InitializerTimingListERNS_15UninitedUpwardsE
   fun:_ZN11ImageLoader23recursiveInitializationERKNS_11LinkContextEjPKcRNS_21InitializerTimingListERNS_15UninitedUpwardsE
}
{
   <insert_a_suppression_name_here>
   Memcheck:Leak
   match-leak-kinds: possible
   fun:malloc
   fun:_ZN13list_array_ttIm15protocol_list_tE11attachListsEPKPS0_j
   fun:_ZL16attachCategoriesP10objc_classP26locstamped_category_list_tb
   fun:_ZL12realizeClassP10objc_class
   fun:look_up_class
   fun:objc_getFutureClass
   fun:__CFInitialize
   fun:_ZN16ImageLoaderMachO11doImageInitERKN11ImageLoader11LinkContextE
   fun:_ZN16ImageLoaderMachO16doInitializationERKN11ImageLoader11LinkContextE
   fun:_ZN11ImageLoader23recursiveInitializationERKNS_11LinkContextEjPKcRNS_21InitializerTimingListERNS_15UninitedUpwardsE
   fun:_ZN11ImageLoader23recursiveInitializationERKNS_11LinkContextEjPKcRNS_21InitializerTimingListERNS_15UninitedUpwardsE
   fun:_ZN11ImageLoader23recursiveInitializationERKNS_11LinkContextEjPKcRNS_21InitializerTimingListERNS_15UninitedUpwardsE
}
{
   <insert_a_suppression_name_here>
   Memcheck:Leak
   match-leak-kinds: possible
   fun:malloc
   fun:_ZN13list_array_ttI8method_t13method_list_tE11attachListsEPKPS1_j
   fun:_ZL16attachCategoriesP10objc_classP26locstamped_category_list_tb
   fun:_ZL12realizeClassP10objc_class
   fun:_ZL12realizeClassP10objc_class
   fun:_ZL12realizeClassP10objc_class
   fun:look_up_class
   fun:objc_getFutureClass
   fun:__CFInitialize
   fun:_ZN16ImageLoaderMachO11doImageInitERKN11ImageLoader11LinkContextE
   fun:_ZN16ImageLoaderMachO16doInitializationERKN11ImageLoader11LinkContextE
   fun:_ZN11ImageLoader23recursiveInitializationERKNS_11LinkContextEjPKcRNS_21InitializerTimingListERNS_15UninitedUpwardsE
}
{
   <insert_a_suppression_name_here>
   Memcheck:Leak
   match-leak-kinds: possible
   fun:malloc
   fun:_ZN13list_array_ttI8method_t13method_list_tE11attachListsEPKPS1_j
   fun:_ZL16attachCategoriesP10objc_classP26locstamped_category_list_tb
   fun:_ZL12realizeClassP10objc_class
   fun:_ZL12realizeClassP10objc_class
   fun:look_up_class
   fun:objc_getFutureClass
   fun:__CFInitialize
   fun:_ZN16ImageLoaderMachO11doImageInitERKN11ImageLoader11LinkContextE
   fun:_ZN16ImageLoaderMachO16doInitializationERKN11ImageLoader11LinkContextE
   fun:_ZN11ImageLoader23recursiveInitializationERKNS_11LinkContextEjPKcRNS_21InitializerTimingListERNS_15UninitedUpwardsE
   fun:_ZN11ImageLoader23recursiveInitializationERKNS_11LinkContextEjPKcRNS_21InitializerTimingListERNS_15UninitedUpwardsE
}
{
   <insert_a_suppression_name_here>
   Memcheck:Leak
   match-leak-kinds: possible
   fun:malloc
   fun:_ZN13list_array_ttI8method_t13method_list_tE11attachListsEPKPS1_j
   fun:_ZL16attachCategoriesP10objc_classP26locstamped_category_list_tb
   fun:_ZL12realizeClassP10objc_class
   fun:_ZL12realizeClassP10objc_class
   fun:_ZL12realizeClassP10objc_class
   fun:_ZL12realizeClassP10objc_class
   fun:look_up_class
   fun:objc_getFutureClass
   fun:__CFInitialize
   fun:_ZN16ImageLoaderMachO11doImageInitERKN11ImageLoader11LinkContextE
   fun:_ZN16ImageLoaderMachO16doInitializationERKN11ImageLoader11LinkContextE
}
{
   <insert_a_suppression_name_here>
   Memcheck:Leak
   match-leak-kinds: possible
   fun:malloc
   fun:_ZN13list_array_ttI8method_t13method_list_tE11attachListsEPKPS1_j
   fun:_ZL16attachCategoriesP10objc_classP26locstamped_category_list_tb
   fun:_ZL12realizeClassP10objc_class
   fun:_ZL12realizeClassP10objc_class
   fun:look_up_class
   fun:objc_getFutureClass
   fun:__CFInitialize
   fun:_ZN16ImageLoaderMachO11doImageInitERKN11ImageLoader11LinkContextE
   fun:_ZN16ImageLoaderMachO16doInitializationERKN11ImageLoader11LinkContextE
   fun:_ZN11ImageLoader23recursiveInitializationERKNS_11LinkContextEjPKcRNS_21InitializerTimingListERNS_15UninitedUpwardsE
   fun:_ZN11ImageLoader23recursiveInitializationERKNS_11LinkContextEjPKcRNS_21InitializerTimingListERNS_15UninitedUpwardsE
}
{
   <insert_a_suppression_name_here>
   Memcheck:Leak
   match-leak-kinds: possible
   fun:malloc
   fun:_ZN13list_array_ttI8method_t13method_list_tE11attachListsEPKPS1_j
   fun:_ZL16attachCategoriesP10objc_classP26locstamped_category_list_tb
   fun:_ZL12realizeClassP10objc_class
   fun:_ZL12realizeClassP10objc_class
   fun:look_up_class
   fun:objc_getFutureClass
   fun:__CFInitialize
   fun:_ZN16ImageLoaderMachO11doImageInitERKN11ImageLoader11LinkContextE
   fun:_ZN16ImageLoaderMachO16doInitializationERKN11ImageLoader11LinkContextE
   fun:_ZN11ImageLoader23recursiveInitializationERKNS_11LinkContextEjPKcRNS_21InitializerTimingListERNS_15UninitedUpwardsE
   fun:_ZN11ImageLoader23recursiveInitializationERKNS_11LinkContextEjPKcRNS_21InitializerTimingListERNS_15UninitedUpwardsE
}
{
   <insert_a_suppression_name_here>
   Memcheck:Leak
   match-leak-kinds: possible
   fun:malloc
   fun:_ZN13list_array_ttIm15protocol_list_tE11attachListsEPKPS0_j
   fun:_ZL16attachCategoriesP10objc_classP26locstamped_category_list_tb
   fun:_ZL12realizeClassP10objc_class
   fun:_ZL12realizeClassP10objc_class
   fun:_ZL12realizeClassP10objc_class
   fun:look_up_class
   fun:_NSToDoAtProcessStart
   fun:_NSInitializePlatform
   fun:call_load_methods
   fun:load_images
   fun:_ZN4dyldL12notifySingleE17dyld_image_statesPK11ImageLoaderPNS1_21InitializerTimingListE
}
{
   <insert_a_suppression_name_here>
   Memcheck:Leak
   match-leak-kinds: possible
   fun:malloc
   fun:_ZN13list_array_ttI10property_t15property_list_tE11attachListsEPKPS1_j
   fun:_ZL16attachCategoriesP10objc_classP26locstamped_category_list_tb
   fun:_ZL12realizeClassP10objc_class
   fun:_ZL12realizeClassP10objc_class
   fun:look_up_class
   fun:_NSToDoAtProcessStart
   fun:_NSInitializePlatform
   fun:call_load_methods
   fun:load_images
   fun:_ZN4dyldL12notifySingleE17dyld_image_statesPK11ImageLoaderPNS1_21InitializerTimingListE
   fun:_ZN11ImageLoader23recursiveInitializationERKNS_11LinkContextEjPKcRNS_21InitializerTimingListERNS_15UninitedUpwardsE
}
{
   <insert_a_suppression_name_here>
   Memcheck:Leak
   match-leak-kinds: possible
   fun:malloc
   fun:_ZN13list_array_ttIm15protocol_list_tE11attachListsEPKPS0_j
   fun:_ZL16attachCategoriesP10objc_classP26locstamped_category_list_tb
   fun:_ZL12realizeClassP10objc_class
   fun:_ZL12realizeClassP10objc_class
   fun:look_up_class
   fun:_NSToDoAtProcessStart
   fun:_NSInitializePlatform
   fun:call_load_methods
   fun:load_images
   fun:_ZN4dyldL12notifySingleE17dyld_image_statesPK11ImageLoaderPNS1_21InitializerTimingListE
   fun:_ZN11ImageLoader23recursiveInitializationERKNS_11LinkContextEjPKcRNS_21InitializerTimingListERNS_15UninitedUpwardsE
}
{
   <insert_a_suppression_name_here>
   Memcheck:Leak
   match-leak-kinds: possible
   fun:malloc
   fun:_ZN13list_array_ttI8method_t13method_list_tE11attachListsEPKPS1_j
   fun:_ZL16attachCategoriesP10objc_classP26locstamped_category_list_tb
   fun:_ZL12realizeClassP10objc_class
   fun:look_up_class
   fun:_NSToDoAtProcessStart
   fun:_NSInitializePlatform
   fun:call_load_methods
   fun:load_images
   fun:_ZN4dyldL12notifySingleE17dyld_image_statesPK11ImageLoaderPNS1_21InitializerTimingListE
   fun:_ZN11ImageLoader23recursiveInitializationERKNS_11LinkContextEjPKcRNS_21InitializerTimingListERNS_15UninitedUpwardsE
   fun:_ZN11ImageLoader23recursiveInitializationERKNS_11LinkContextEjPKcRNS_21InitializerTimingListERNS_15UninitedUpwardsE
}
{
   <insert_a_suppression_name_here>
   Memcheck:Leak
   match-leak-kinds: possible
   fun:malloc
   fun:_ZN13list_array_ttI8method_t13method_list_tE11attachListsEPKPS1_j
   fun:_ZL16attachCategoriesP10objc_classP26locstamped_category_list_tb
   fun:_ZL12realizeClassP10objc_class
   fun:look_up_class
   fun:_NSToDoAtProcessStart
   fun:_NSInitializePlatform
   fun:call_load_methods
   fun:load_images
   fun:_ZN4dyldL12notifySingleE17dyld_image_statesPK11ImageLoaderPNS1_21InitializerTimingListE
   fun:_ZN11ImageLoader23recursiveInitializationERKNS_11LinkContextEjPKcRNS_21InitializerTimingListERNS_15UninitedUpwardsE
   fun:_ZN11ImageLoader23recursiveInitializationERKNS_11LinkContextEjPKcRNS_21InitializerTimingListERNS_15UninitedUpwardsE
}
{
   <insert_a_suppression_name_here>
   Memcheck:Leak
   match-leak-kinds: possible
   fun:malloc
   fun:_ZN13list_array_ttIm15protocol_list_tE11attachListsEPKPS0_j
   fun:_ZL16attachCategoriesP10objc_classP26locstamped_category_list_tb
   fun:_ZL12realizeClassP10objc_class
   fun:_ZL12realizeClassP10objc_class
   fun:_ZL12realizeClassP10objc_class
   fun:look_up_class
   fun:_NSToDoAtProcessStart
   fun:_NSInitializePlatform
   fun:call_load_methods
   fun:load_images
   fun:_ZN4dyldL12notifySingleE17dyld_image_statesPK11ImageLoaderPNS1_21InitializerTimingListE
}
{
   <insert_a_suppression_name_here>
   Memcheck:Leak
   match-leak-kinds: possible
   fun:malloc
   fun:_ZN13list_array_ttI10property_t15property_list_tE11attachListsEPKPS1_j
   fun:_ZL16attachCategoriesP10objc_classP26locstamped_category_list_tb
   fun:_ZL12realizeClassP10objc_class
   fun:_ZL12realizeClassP10objc_class
   fun:look_up_class
   fun:_NSToDoAtProcessStart
   fun:_NSInitializePlatform
   fun:call_load_methods
   fun:load_images
   fun:_ZN4dyldL12notifySingleE17dyld_image_statesPK11ImageLoaderPNS1_21InitializerTimingListE
   fun:_ZN11ImageLoader23recursiveInitializationERKNS_11LinkContextEjPKcRNS_21InitializerTimingListERNS_15UninitedUpwardsE
}
{
   <insert_a_suppression_name_here>
   Memcheck:Leak
   match-leak-kinds: possible
   fun:malloc
   fun:_ZN13list_array_ttIm15protocol_list_tE11attachListsEPKPS0_j
   fun:_ZL16attachCategoriesP10objc_classP26locstamped_category_list_tb
   fun:_ZL12realizeClassP10objc_class
   fun:_ZL12realizeClassP10objc_class
   fun:look_up_class
   fun:_NSToDoAtProcessStart
   fun:_NSInitializePlatform
   fun:call_load_methods
   fun:load_images
   fun:_ZN4dyldL12notifySingleE17dyld_image_statesPK11ImageLoaderPNS1_21InitializerTimingListE
   fun:_ZN11ImageLoader23recursiveInitializationERKNS_11LinkContextEjPKcRNS_21InitializerTimingListERNS_15UninitedUpwardsE
}
{
   <insert_a_suppression_name_here>
   Memcheck:Leak
   match-leak-kinds: possible
   fun:malloc
   fun:_ZN13list_array_ttI10property_t15property_list_tE11attachListsEPKPS1_j
   fun:_ZL16attachCategoriesP10objc_classP26locstamped_category_list_tb
   fun:_ZL12realizeClassP10objc_class
   fun:_ZL12realizeClassP10objc_class
   fun:look_up_class
   fun:_NSToDoAtProcessStart
   fun:_NSInitializePlatform
   fun:call_load_methods
   fun:load_images
   fun:_ZN4dyldL12notifySingleE17dyld_image_statesPK11ImageLoaderPNS1_21InitializerTimingListE
   fun:_ZN11ImageLoader23recursiveInitializationERKNS_11LinkContextEjPKcRNS_21InitializerTimingListERNS_15UninitedUpwardsE
}
{
   <insert_a_suppression_name_here>
   Memcheck:Leak
   match-leak-kinds: possible
   fun:malloc
   fun:_ZN13list_array_ttI10property_t15property_list_tE11attachListsEPKPS1_j
   fun:_ZL16attachCategoriesP10objc_classP26locstamped_category_list_tb
   fun:_ZL12realizeClassP10objc_class
   fun:look_up_class
   fun:_NSToDoAtProcessStart
   fun:_NSInitializePlatform
   fun:call_load_methods
   fun:load_images
   fun:_ZN4dyldL12notifySingleE17dyld_image_statesPK11ImageLoaderPNS1_21InitializerTimingListE
   fun:_ZN11ImageLoader23recursiveInitializationERKNS_11LinkContextEjPKcRNS_21InitializerTimingListERNS_15UninitedUpwardsE
   fun:_ZN11ImageLoader23recursiveInitializationERKNS_11LinkContextEjPKcRNS_21InitializerTimingListERNS_15UninitedUpwardsE
}
{
   <insert_a_suppression_name_here>
   Memcheck:Leak
   match-leak-kinds: possible
   fun:realloc
   fun:_ZN13list_array_ttIm15protocol_list_tE11attachListsEPKPS0_j
   fun:_ZL16attachCategoriesP10objc_classP26locstamped_category_list_tb
   fun:_ZL16remethodizeClassP10objc_class
   fun:_read_images
   fun:map_images_nolock
   fun:map_images
   fun:_ZN4dyldL18notifyBatchPartialE17dyld_image_statesbPFPKcS0_jPK15dyld_image_infoEbb
   fun:_ZN4dyld21registerObjCNotifiersEPFvjPKPKcPKPK11mach_headerEPFvS1_S6_ESC_
   fun:_dyld_objc_notify_register
   fun:_objc_init
   fun:_os_object_init
}
{
   <insert_a_suppression_name_here>
   Memcheck:Leak
   match-leak-kinds: possible
   fun:realloc
   fun:_ZN13list_array_ttIm15protocol_list_tE11attachListsEPKPS0_j
   fun:_ZL16attachCategoriesP10objc_classP26locstamped_category_list_tb
   fun:_ZL16remethodizeClassP10objc_class
   fun:_read_images
   fun:map_images_nolock
   fun:map_images
   fun:_ZN4dyldL18notifyBatchPartialE17dyld_image_statesbPFPKcS0_jPK15dyld_image_infoEbb
   fun:_ZN4dyld21registerObjCNotifiersEPFvjPKPKcPKPK11mach_headerEPFvS1_S6_ESC_
   fun:_dyld_objc_notify_register
   fun:_objc_init
   fun:_os_object_init
}
{
   <insert_a_suppression_name_here>
   Memcheck:Leak
   match-leak-kinds: possible
   fun:malloc
   fun:_ZN13list_array_ttI8method_t13method_list_tE11attachListsEPKPS1_j
   fun:_ZL16attachCategoriesP10objc_classP26locstamped_category_list_tb
   fun:_ZL12realizeClassP10objc_class
   fun:_ZL12realizeClassP10objc_class
   fun:_ZL12realizeClassP10objc_class
   fun:_ZL12realizeClassP10objc_class
   fun:look_up_class
   fun:objc_getFutureClass
   fun:__CFInitialize
   fun:_ZN16ImageLoaderMachO11doImageInitERKN11ImageLoader11LinkContextE
   fun:_ZN16ImageLoaderMachO16doInitializationERKN11ImageLoader11LinkContextE
}
{
   <insert_a_suppression_name_here>
   Memcheck:Leak
   match-leak-kinds: possible
   fun:malloc
   fun:_ZN13list_array_ttI8method_t13method_list_tE11attachListsEPKPS1_j
   fun:_ZL16attachCategoriesP10objc_classP26locstamped_category_list_tb
   fun:_ZL12realizeClassP10objc_class
   fun:_ZL12realizeClassP10objc_class
   fun:_ZL12realizeClassP10objc_class
   fun:look_up_class
   fun:objc_getFutureClass
   fun:__CFInitialize
   fun:_ZN16ImageLoaderMachO11doImageInitERKN11ImageLoader11LinkContextE
   fun:_ZN16ImageLoaderMachO16doInitializationERKN11ImageLoader11LinkContextE
   fun:_ZN11ImageLoader23recursiveInitializationERKNS_11LinkContextEjPKcRNS_21InitializerTimingListERNS_15UninitedUpwardsE
}
{
   <insert_a_suppression_name_here>
   Memcheck:Leak
   match-leak-kinds: possible
   fun:malloc
   fun:_ZN13list_array_ttI8method_t13method_list_tE11attachListsEPKPS1_j
   fun:_ZL16attachCategoriesP10objc_classP26locstamped_category_list_tb
   fun:_ZL12realizeClassP10objc_class
   fun:_ZL12realizeClassP10objc_class
   fun:look_up_class
   fun:objc_getFutureClass
   fun:__CFInitialize
   fun:_ZN16ImageLoaderMachO11doImageInitERKN11ImageLoader11LinkContextE
   fun:_ZN16ImageLoaderMachO16doInitializationERKN11ImageLoader11LinkContextE
   fun:_ZN11ImageLoader23recursiveInitializationERKNS_11LinkContextEjPKcRNS_21InitializerTimingListERNS_15UninitedUpwardsE
   fun:_ZN11ImageLoader23recursiveInitializationERKNS_11LinkContextEjPKcRNS_21InitializerTimingListERNS_15UninitedUpwardsE
}
{
   <insert_a_suppression_name_here>
   Memcheck:Leak
   match-leak-kinds: possible
   fun:malloc
   fun:_ZN13list_array_ttI8method_t13method_list_tE11attachListsEPKPS1_j
   fun:_ZL16attachCategoriesP10objc_classP26locstamped_category_list_tb
   fun:_ZL12realizeClassP10objc_class
   fun:_ZL12realizeClassP10objc_class
   fun:_ZL12realizeClassP10objc_class
   fun:_ZL12realizeClassP10objc_class
   fun:look_up_class
   fun:objc_getFutureClass
   fun:__CFInitialize
   fun:_ZN16ImageLoaderMachO11doImageInitERKN11ImageLoader11LinkContextE
   fun:_ZN16ImageLoaderMachO16doInitializationERKN11ImageLoader11LinkContextE
}
{
   <insert_a_suppression_name_here>
   Memcheck:Leak
   match-leak-kinds: possible
   fun:malloc
   fun:_ZN13list_array_ttI8method_t13method_list_tE11attachListsEPKPS1_j
   fun:_ZL16attachCategoriesP10objc_classP26locstamped_category_list_tb
   fun:_ZL12realizeClassP10objc_class
   fun:_ZL12realizeClassP10objc_class
   fun:look_up_class
   fun:objc_getFutureClass
   fun:__CFInitialize
   fun:_ZN16ImageLoaderMachO11doImageInitERKN11ImageLoader11LinkContextE
   fun:_ZN16ImageLoaderMachO16doInitializationERKN11ImageLoader11LinkContextE
   fun:_ZN11ImageLoader23recursiveInitializationERKNS_11LinkContextEjPKcRNS_21InitializerTimingListERNS_15UninitedUpwardsE
   fun:_ZN11ImageLoader23recursiveInitializationERKNS_11LinkContextEjPKcRNS_21InitializerTimingListERNS_15UninitedUpwardsE
}
{
   <insert_a_suppression_name_here>
   Memcheck:Leak
   match-leak-kinds: possible
   fun:malloc
   fun:_ZN13list_array_ttI8method_t13method_list_tE11attachListsEPKPS1_j
   fun:_ZL16attachCategoriesP10objc_classP26locstamped_category_list_tb
   fun:_ZL12realizeClassP10objc_class
   fun:_ZL12realizeClassP10objc_class
   fun:_ZL12realizeClassP10objc_class
   fun:look_up_class
   fun:objc_getFutureClass
   fun:__CFInitialize
   fun:_ZN16ImageLoaderMachO11doImageInitERKN11ImageLoader11LinkContextE
   fun:_ZN16ImageLoaderMachO16doInitializationERKN11ImageLoader11LinkContextE
   fun:_ZN11ImageLoader23recursiveInitializationERKNS_11LinkContextEjPKcRNS_21InitializerTimingListERNS_15UninitedUpwardsE
}
{
   <insert_a_suppression_name_here>
   Memcheck:Leak
   match-leak-kinds: possible
   fun:malloc
   fun:_ZN13list_array_ttI8method_t13method_list_tE11attachListsEPKPS1_j
   fun:_ZL16attachCategoriesP10objc_classP26locstamped_category_list_tb
   fun:_ZL12realizeClassP10objc_class
   fun:_ZL12realizeClassP10objc_class
   fun:look_up_class
   fun:objc_getFutureClass
   fun:__CFInitialize
   fun:_ZN16ImageLoaderMachO11doImageInitERKN11ImageLoader11LinkContextE
   fun:_ZN16ImageLoaderMachO16doInitializationERKN11ImageLoader11LinkContextE
   fun:_ZN11ImageLoader23recursiveInitializationERKNS_11LinkContextEjPKcRNS_21InitializerTimingListERNS_15UninitedUpwardsE
   fun:_ZN11ImageLoader23recursiveInitializationERKNS_11LinkContextEjPKcRNS_21InitializerTimingListERNS_15UninitedUpwardsE
}
{
   <insert_a_suppression_name_here>
   Memcheck:Leak
   match-leak-kinds: possible
   fun:malloc
   fun:_ZN13list_array_ttI8method_t13method_list_tE11attachListsEPKPS1_j
   fun:_ZL16attachCategoriesP10objc_classP26locstamped_category_list_tb
   fun:_ZL12realizeClassP10objc_class
   fun:_ZL12realizeClassP10objc_class
   fun:look_up_class
   fun:_NSToDoAtProcessStart
   fun:_NSInitializePlatform
   fun:call_load_methods
   fun:load_images
   fun:_ZN4dyldL12notifySingleE17dyld_image_statesPK11ImageLoaderPNS1_21InitializerTimingListE
   fun:_ZN11ImageLoader23recursiveInitializationERKNS_11LinkContextEjPKcRNS_21InitializerTimingListERNS_15UninitedUpwardsE
}
{
   <insert_a_suppression_name_here>
   Memcheck:Leak
   match-leak-kinds: possible
   fun:malloc
   fun:_ZN13list_array_ttI8method_t13method_list_tE11attachListsEPKPS1_j
   fun:_ZL16attachCategoriesP10objc_classP26locstamped_category_list_tb
   fun:_ZL12realizeClassP10objc_class
   fun:look_up_class
   fun:_NSToDoAtProcessStart
   fun:_NSInitializePlatform
   fun:call_load_methods
   fun:load_images
   fun:_ZN4dyldL12notifySingleE17dyld_image_statesPK11ImageLoaderPNS1_21InitializerTimingListE
   fun:_ZN11ImageLoader23recursiveInitializationERKNS_11LinkContextEjPKcRNS_21InitializerTimingListERNS_15UninitedUpwardsE
   fun:_ZN11ImageLoader23recursiveInitializationERKNS_11LinkContextEjPKcRNS_21InitializerTimingListERNS_15UninitedUpwardsE
}
{
   <insert_a_suppression_name_here>
   Memcheck:Leak
   match-leak-kinds: possible
   fun:malloc
   fun:_ZN13list_array_ttI8method_t13method_list_tE11attachListsEPKPS1_j
   fun:_ZL16attachCategoriesP10objc_classP26locstamped_category_list_tb
   fun:_ZL12realizeClassP10objc_class
   fun:look_up_class
   fun:IMG_LoadSVG_RW
   fun:call_load_methods
   fun:load_images
   fun:_ZN4dyldL12notifySingleE17dyld_image_statesPK11ImageLoaderPNS1_21InitializerTimingListE
   fun:_ZN11ImageLoader23recursiveInitializationERKNS_11LinkContextEjPKcRNS_21InitializerTimingListERNS_15UninitedUpwardsE
   fun:_ZN11ImageLoader23recursiveInitializationERKNS_11LinkContextEjPKcRNS_21InitializerTimingListERNS_15UninitedUpwardsE
   fun:_ZN11ImageLoader19processInitializersERKNS_11LinkContextEjRNS_21InitializerTimingListERNS_15UninitedUpwardsE
}
{
   <insert_a_suppression_name_here>
   Memcheck:Leak
   match-leak-kinds: possible
   fun:malloc
   fun:_ZN13list_array_ttI8method_t13method_list_tE11attachListsEPKPS1_j
   fun:_ZL16attachCategoriesP10objc_classP26locstamped_category_list_tb
   fun:_ZL12realizeClassP10objc_class
   fun:_ZL12realizeClassP10objc_class
   fun:_ZL12realizeClassP10objc_class
   fun:_ZL12realizeClassP10objc_class
   fun:look_up_class
   fun:objc_getFutureClass
   fun:__CFInitialize
   fun:_ZN16ImageLoaderMachO11doImageInitERKN11ImageLoader11LinkContextE
   fun:_ZN16ImageLoaderMachO16doInitializationERKN11ImageLoader11LinkContextE
}
{
   <insert_a_suppression_name_here>
   Memcheck:Leak
   match-leak-kinds: possible
   fun:malloc
   fun:_ZN13list_array_ttI10property_t15property_list_tE11attachListsEPKPS1_j
   fun:_ZL16attachCategoriesP10objc_classP26locstamped_category_list_tb
   fun:_ZL12realizeClassP10objc_class
   fun:look_up_class
   fun:objc_getFutureClass
   fun:__CFInitialize
   fun:_ZN16ImageLoaderMachO11doImageInitERKN11ImageLoader11LinkContextE
   fun:_ZN16ImageLoaderMachO16doInitializationERKN11ImageLoader11LinkContextE
   fun:_ZN11ImageLoader23recursiveInitializationERKNS_11LinkContextEjPKcRNS_21InitializerTimingListERNS_15UninitedUpwardsE
   fun:_ZN11ImageLoader23recursiveInitializationERKNS_11LinkContextEjPKcRNS_21InitializerTimingListERNS_15UninitedUpwardsE
   fun:_ZN11ImageLoader23recursiveInitializationERKNS_11LinkContextEjPKcRNS_21InitializerTimingListERNS_15UninitedUpwardsE
}
{
   <insert_a_suppression_name_here>
   Memcheck:Leak
   match-leak-kinds: possible
   fun:malloc
   fun:_ZN13list_array_ttI8method_t13method_list_tE11attachListsEPKPS1_j
   fun:_ZL16attachCategoriesP10objc_classP26locstamped_category_list_tb
   fun:_ZL12realizeClassP10objc_class
   fun:look_up_class
   fun:_NSToDoAtProcessStart
   fun:_NSInitializePlatform
   fun:call_load_methods
   fun:load_images
   fun:_ZN4dyldL12notifySingleE17dyld_image_statesPK11ImageLoaderPNS1_21InitializerTimingListE
   fun:_ZN11ImageLoader23recursiveInitializationERKNS_11LinkContextEjPKcRNS_21InitializerTimingListERNS_15UninitedUpwardsE
   fun:_ZN11ImageLoader23recursiveInitializationERKNS_11LinkContextEjPKcRNS_21InitializerTimingListERNS_15UninitedUpwardsE
}
{
   <insert_a_suppression_name_here>
   Memcheck:Leak
   match-leak-kinds: possible
   fun:malloc
   fun:_ZN13list_array_ttI8method_t13method_list_tE11attachListsEPKPS1_j
   fun:_ZL16attachCategoriesP10objc_classP26locstamped_category_list_tb
   fun:_ZL12realizeClassP10objc_class
   fun:_ZL12realizeClassP10objc_class
   fun:_ZL12realizeClassP10objc_class
   fun:_ZL12realizeClassP10objc_class
   fun:look_up_class
   fun:objc_getFutureClass
   fun:__CFInitialize
   fun:_ZN16ImageLoaderMachO11doImageInitERKN11ImageLoader11LinkContextE
   fun:_ZN16ImageLoaderMachO16doInitializationERKN11ImageLoader11LinkContextE
}
{
   <insert_a_suppression_name_here>
   Memcheck:Leak
   match-leak-kinds: possible
   fun:malloc
   fun:_ZN13list_array_ttI8method_t13method_list_tE11attachListsEPKPS1_j
   fun:_ZL16attachCategoriesP10objc_classP26locstamped_category_list_tb
   fun:_ZL12realizeClassP10objc_class
   fun:look_up_class
   fun:_NSToDoAtProcessStart
   fun:_NSInitializePlatform
   fun:call_load_methods
   fun:load_images
   fun:_ZN4dyldL12notifySingleE17dyld_image_statesPK11ImageLoaderPNS1_21InitializerTimingListE
   fun:_ZN11ImageLoader23recursiveInitializationERKNS_11LinkContextEjPKcRNS_21InitializerTimingListERNS_15UninitedUpwardsE
   fun:_ZN11ImageLoader23recursiveInitializationERKNS_11LinkContextEjPKcRNS_21InitializerTimingListERNS_15UninitedUpwardsE
}
{
   <insert_a_suppression_name_here>
   Memcheck:Leak
   match-leak-kinds: possible
   fun:malloc
   fun:_ZN13list_array_ttI8method_t13method_list_tE11attachListsEPKPS1_j
   fun:_ZL16attachCategoriesP10objc_classP26locstamped_category_list_tb
   fun:_ZL12realizeClassP10objc_class
   fun:look_up_class
   fun:_NSToDoAtProcessStart
   fun:_NSInitializePlatform
   fun:call_load_methods
   fun:load_images
   fun:_ZN4dyldL12notifySingleE17dyld_image_statesPK11ImageLoaderPNS1_21InitializerTimingListE
   fun:_ZN11ImageLoader23recursiveInitializationERKNS_11LinkContextEjPKcRNS_21InitializerTimingListERNS_15UninitedUpwardsE
   fun:_ZN11ImageLoader23recursiveInitializationERKNS_11LinkContextEjPKcRNS_21InitializerTimingListERNS_15UninitedUpwardsE
}
{
   <insert_a_suppression_name_here>
   Memcheck:Leak
   match-leak-kinds: possible
   fun:malloc
   fun:_ZN13list_array_ttI8method_t13method_list_tE11attachListsEPKPS1_j
   fun:_ZL16attachCategoriesP10objc_classP26locstamped_category_list_tb
   fun:_ZL12realizeClassP10objc_class
   fun:_ZL12realizeClassP10objc_class
   fun:_ZL12realizeClassP10objc_class
   fun:look_up_class
   fun:_NSToDoAtProcessStart
   fun:_NSInitializePlatform
   fun:call_load_methods
   fun:load_images
   fun:_ZN4dyldL12notifySingleE17dyld_image_statesPK11ImageLoaderPNS1_21InitializerTimingListE
}
{
   <insert_a_suppression_name_here>
   Memcheck:Leak
   match-leak-kinds: possible
   fun:malloc
   fun:_ZN13list_array_ttI8method_t13method_list_tE11attachListsEPKPS1_j
   fun:_ZL16attachCategoriesP10objc_classP26locstamped_category_list_tb
   fun:_ZL12realizeClassP10objc_class
   fun:_ZL12realizeClassP10objc_class
   fun:_ZL12realizeClassP10objc_class
   fun:look_up_class
   fun:_NSToDoAtProcessStart
   fun:_NSInitializePlatform
   fun:call_load_methods
   fun:load_images
   fun:_ZN4dyldL12notifySingleE17dyld_image_statesPK11ImageLoaderPNS1_21InitializerTimingListE
}
{
   <insert_a_suppression_name_here>
   Memcheck:Leak
   match-leak-kinds: possible
   fun:malloc
   fun:_ZN13list_array_ttI8method_t13method_list_tE11attachListsEPKPS1_j
   fun:_ZL16attachCategoriesP10objc_classP26locstamped_category_list_tb
   fun:_ZL12realizeClassP10objc_class
   fun:look_up_class
   fun:IMG_LoadSVG_RW
   fun:call_load_methods
   fun:load_images
   fun:_ZN4dyldL12notifySingleE17dyld_image_statesPK11ImageLoaderPNS1_21InitializerTimingListE
   fun:_ZN11ImageLoader23recursiveInitializationERKNS_11LinkContextEjPKcRNS_21InitializerTimingListERNS_15UninitedUpwardsE
   fun:_ZN11ImageLoader23recursiveInitializationERKNS_11LinkContextEjPKcRNS_21InitializerTimingListERNS_15UninitedUpwardsE
   fun:_ZN11ImageLoader19processInitializersERKNS_11LinkContextEjRNS_21InitializerTimingListERNS_15UninitedUpwardsE
}
{
   <insert_a_suppression_name_here>
   Memcheck:Leak
   match-leak-kinds: possible
   fun:calloc
   fun:_ZL12realizeClassP10objc_class
   fun:_ZL12realizeClassP10objc_class
   fun:look_up_class
   fun:objc_getFutureClass
   fun:__CFInitialize
   fun:_ZN16ImageLoaderMachO11doImageInitERKN11ImageLoader11LinkContextE
   fun:_ZN16ImageLoaderMachO16doInitializationERKN11ImageLoader11LinkContextE
   fun:_ZN11ImageLoader23recursiveInitializationERKNS_11LinkContextEjPKcRNS_21InitializerTimingListERNS_15UninitedUpwardsE
   fun:_ZN11ImageLoader23recursiveInitializationERKNS_11LinkContextEjPKcRNS_21InitializerTimingListERNS_15UninitedUpwardsE
   fun:_ZN11ImageLoader23recursiveInitializationERKNS_11LinkContextEjPKcRNS_21InitializerTimingListERNS_15UninitedUpwardsE
   fun:_ZN11ImageLoader23recursiveInitializationERKNS_11LinkContextEjPKcRNS_21InitializerTimingListERNS_15UninitedUpwardsE
}
{
   <insert_a_suppression_name_here>
   Memcheck:Leak
   match-leak-kinds: possible
   fun:calloc
   fun:_ZL12realizeClassP10objc_class
   fun:_ZL12realizeClassP10objc_class
   fun:_ZL12realizeClassP10objc_class
   fun:look_up_class
   fun:objc_getFutureClass
   fun:__CFInitialize
   fun:_ZN16ImageLoaderMachO11doImageInitERKN11ImageLoader11LinkContextE
   fun:_ZN16ImageLoaderMachO16doInitializationERKN11ImageLoader11LinkContextE
   fun:_ZN11ImageLoader23recursiveInitializationERKNS_11LinkContextEjPKcRNS_21InitializerTimingListERNS_15UninitedUpwardsE
   fun:_ZN11ImageLoader23recursiveInitializationERKNS_11LinkContextEjPKcRNS_21InitializerTimingListERNS_15UninitedUpwardsE
   fun:_ZN11ImageLoader23recursiveInitializationERKNS_11LinkContextEjPKcRNS_21InitializerTimingListERNS_15UninitedUpwardsE
}
{
   <insert_a_suppression_name_here>
   Memcheck:Leak
   match-leak-kinds: possible
   fun:malloc
   fun:_ZN13list_array_ttI8method_t13method_list_tE11attachListsEPKPS1_j
   fun:_ZL16attachCategoriesP10objc_classP26locstamped_category_list_tb
   fun:_ZL12realizeClassP10objc_class
   fun:_ZL12realizeClassP10objc_class
   fun:look_up_class
   fun:objc_getFutureClass
   fun:__CFInitialize
   fun:_ZN16ImageLoaderMachO11doImageInitERKN11ImageLoader11LinkContextE
   fun:_ZN16ImageLoaderMachO16doInitializationERKN11ImageLoader11LinkContextE
   fun:_ZN11ImageLoader23recursiveInitializationERKNS_11LinkContextEjPKcRNS_21InitializerTimingListERNS_15UninitedUpwardsE
   fun:_ZN11ImageLoader23recursiveInitializationERKNS_11LinkContextEjPKcRNS_21InitializerTimingListERNS_15UninitedUpwardsE
}
{
   <insert_a_suppression_name_here>
   Memcheck:Leak
   match-leak-kinds: possible
   fun:calloc
   fun:_ZL12realizeClassP10objc_class
   fun:_ZL12realizeClassP10objc_class
   fun:look_up_class
   fun:objc_getFutureClass
   fun:__CFInitialize
   fun:_ZN16ImageLoaderMachO11doImageInitERKN11ImageLoader11LinkContextE
   fun:_ZN16ImageLoaderMachO16doInitializationERKN11ImageLoader11LinkContextE
   fun:_ZN11ImageLoader23recursiveInitializationERKNS_11LinkContextEjPKcRNS_21InitializerTimingListERNS_15UninitedUpwardsE
   fun:_ZN11ImageLoader23recursiveInitializationERKNS_11LinkContextEjPKcRNS_21InitializerTimingListERNS_15UninitedUpwardsE
   fun:_ZN11ImageLoader23recursiveInitializationERKNS_11LinkContextEjPKcRNS_21InitializerTimingListERNS_15UninitedUpwardsE
   fun:_ZN11ImageLoader23recursiveInitializationERKNS_11LinkContextEjPKcRNS_21InitializerTimingListERNS_15UninitedUpwardsE
}
{
   <insert_a_suppression_name_here>
   Memcheck:Leak
   match-leak-kinds: possible
   fun:calloc
   fun:_ZL12realizeClassP10objc_class
   fun:_ZL12realizeClassP10objc_class
   fun:_ZL12realizeClassP10objc_class
   fun:look_up_class
   fun:objc_getFutureClass
   fun:__CFInitialize
   fun:_ZN16ImageLoaderMachO11doImageInitERKN11ImageLoader11LinkContextE
   fun:_ZN16ImageLoaderMachO16doInitializationERKN11ImageLoader11LinkContextE
   fun:_ZN11ImageLoader23recursiveInitializationERKNS_11LinkContextEjPKcRNS_21InitializerTimingListERNS_15UninitedUpwardsE
   fun:_ZN11ImageLoader23recursiveInitializationERKNS_11LinkContextEjPKcRNS_21InitializerTimingListERNS_15UninitedUpwardsE
   fun:_ZN11ImageLoader23recursiveInitializationERKNS_11LinkContextEjPKcRNS_21InitializerTimingListERNS_15UninitedUpwardsE
}
{
   <insert_a_suppression_name_here>
   Memcheck:Leak
   match-leak-kinds: possible
   fun:calloc
   fun:_ZL12realizeClassP10objc_class
   fun:_class_getNonMetaClass
   fun:lookUpImpOrForward
   fun:_objc_msgSend_uncached
   fun:-[__NSPlaceholderArray initWithObjects:count:]
   fun:__CFInitialize
   fun:_ZN16ImageLoaderMachO11doImageInitERKN11ImageLoader11LinkContextE
   fun:_ZN16ImageLoaderMachO16doInitializationERKN11ImageLoader11LinkContextE
   fun:_ZN11ImageLoader23recursiveInitializationERKNS_11LinkContextEjPKcRNS_21InitializerTimingListERNS_15UninitedUpwardsE
   fun:_ZN11ImageLoader23recursiveInitializationERKNS_11LinkContextEjPKcRNS_21InitializerTimingListERNS_15UninitedUpwardsE
   fun:_ZN11ImageLoader23recursiveInitializationERKNS_11LinkContextEjPKcRNS_21InitializerTimingListERNS_15UninitedUpwardsE
}
{
   <insert_a_suppression_name_here>
   Memcheck:Leak
   match-leak-kinds: possible
   fun:calloc
   fun:_ZL12realizeClassP10objc_class
   fun:look_up_class
   fun:_NSToDoAtProcessStart
   fun:_NSInitializePlatform
   fun:call_load_methods
   fun:load_images
   fun:_ZN4dyldL12notifySingleE17dyld_image_statesPK11ImageLoaderPNS1_21InitializerTimingListE
   fun:_ZN11ImageLoader23recursiveInitializationERKNS_11LinkContextEjPKcRNS_21InitializerTimingListERNS_15UninitedUpwardsE
   fun:_ZN11ImageLoader23recursiveInitializationERKNS_11LinkContextEjPKcRNS_21InitializerTimingListERNS_15UninitedUpwardsE
   fun:_ZN11ImageLoader23recursiveInitializationERKNS_11LinkContextEjPKcRNS_21InitializerTimingListERNS_15UninitedUpwardsE
   fun:_ZN11ImageLoader23recursiveInitializationERKNS_11LinkContextEjPKcRNS_21InitializerTimingListERNS_15UninitedUpwardsE
}
{
   <insert_a_suppression_name_here>
   Memcheck:Leak
   match-leak-kinds: possible
   fun:calloc
   fun:_ZL12realizeClassP10objc_class
   fun:_ZL12realizeClassP10objc_class
   fun:look_up_class
   fun:_NSToDoAtProcessStart
   fun:_NSInitializePlatform
   fun:call_load_methods
   fun:load_images
   fun:_ZN4dyldL12notifySingleE17dyld_image_statesPK11ImageLoaderPNS1_21InitializerTimingListE
   fun:_ZN11ImageLoader23recursiveInitializationERKNS_11LinkContextEjPKcRNS_21InitializerTimingListERNS_15UninitedUpwardsE
   fun:_ZN11ImageLoader23recursiveInitializationERKNS_11LinkContextEjPKcRNS_21InitializerTimingListERNS_15UninitedUpwardsE
   fun:_ZN11ImageLoader23recursiveInitializationERKNS_11LinkContextEjPKcRNS_21InitializerTimingListERNS_15UninitedUpwardsE
}
{
   <insert_a_suppression_name_here>
   Memcheck:Leak
   match-leak-kinds: possible
   fun:malloc
   fun:_ZN13list_array_ttI8method_t13method_list_tE11attachListsEPKPS1_j
   fun:_ZL16attachCategoriesP10objc_classP26locstamped_category_list_tb
   fun:_ZL12realizeClassP10objc_class
   fun:_ZL12realizeClassP10objc_class
   fun:_ZL12realizeClassP10objc_class
   fun:look_up_class
   fun:_NSToDoAtProcessStart
   fun:_NSInitializePlatform
   fun:call_load_methods
   fun:load_images
   fun:_ZN4dyldL12notifySingleE17dyld_image_statesPK11ImageLoaderPNS1_21InitializerTimingListE
}
{
   <insert_a_suppression_name_here>
   Memcheck:Leak
   match-leak-kinds: possible
   fun:malloc
   fun:_ZN13list_array_ttI8method_t13method_list_tE11attachListsEPKPS1_j
   fun:_ZL16attachCategoriesP10objc_classP26locstamped_category_list_tb
   fun:_ZL12realizeClassP10objc_class
   fun:_ZL12realizeClassP10objc_class
   fun:look_up_class
   fun:_NSToDoAtProcessStart
   fun:_NSInitializePlatform
   fun:call_load_methods
   fun:load_images
   fun:_ZN4dyldL12notifySingleE17dyld_image_statesPK11ImageLoaderPNS1_21InitializerTimingListE
   fun:_ZN11ImageLoader23recursiveInitializationERKNS_11LinkContextEjPKcRNS_21InitializerTimingListERNS_15UninitedUpwardsE
}
{
   <insert_a_suppression_name_here>
   Memcheck:Leak
   match-leak-kinds: possible
   fun:calloc
   fun:_ZL12realizeClassP10objc_class
   fun:_class_getNonMetaClass
   fun:lookUpImpOrForward
   fun:_objc_msgSend_uncached
   fun:_NSToDoAtProcessStart
   fun:_NSInitializePlatform
   fun:call_load_methods
   fun:load_images
   fun:_ZN4dyldL12notifySingleE17dyld_image_statesPK11ImageLoaderPNS1_21InitializerTimingListE
   fun:_ZN11ImageLoader23recursiveInitializationERKNS_11LinkContextEjPKcRNS_21InitializerTimingListERNS_15UninitedUpwardsE
   fun:_ZN11ImageLoader23recursiveInitializationERKNS_11LinkContextEjPKcRNS_21InitializerTimingListERNS_15UninitedUpwardsE
}
{
   <insert_a_suppression_name_here>
   Memcheck:Leak
   match-leak-kinds: possible
   fun:calloc
   fun:_ZL12realizeClassP10objc_class
   fun:_class_getNonMetaClass
   fun:lookUpImpOrForward
   fun:_objc_msgSend_uncached
   fun:_NSToDoAtProcessStart
   fun:_NSInitializePlatform
   fun:call_load_methods
   fun:load_images
   fun:_ZN4dyldL12notifySingleE17dyld_image_statesPK11ImageLoaderPNS1_21InitializerTimingListE
   fun:_ZN11ImageLoader23recursiveInitializationERKNS_11LinkContextEjPKcRNS_21InitializerTimingListERNS_15UninitedUpwardsE
   fun:_ZN11ImageLoader23recursiveInitializationERKNS_11LinkContextEjPKcRNS_21InitializerTimingListERNS_15UninitedUpwardsE
}
{
   <insert_a_suppression_name_here>
   Memcheck:Leak
   match-leak-kinds: possible
   fun:calloc
   fun:_ZL12realizeClassP10objc_class
   fun:_class_getNonMetaClass
   fun:lookUpImpOrForward
   fun:_objc_msgSend_uncached
   fun:_NSInitializePlatform
   fun:call_load_methods
   fun:load_images
   fun:_ZN4dyldL12notifySingleE17dyld_image_statesPK11ImageLoaderPNS1_21InitializerTimingListE
   fun:_ZN11ImageLoader23recursiveInitializationERKNS_11LinkContextEjPKcRNS_21InitializerTimingListERNS_15UninitedUpwardsE
   fun:_ZN11ImageLoader23recursiveInitializationERKNS_11LinkContextEjPKcRNS_21InitializerTimingListERNS_15UninitedUpwardsE
   fun:_ZN11ImageLoader23recursiveInitializationERKNS_11LinkContextEjPKcRNS_21InitializerTimingListERNS_15UninitedUpwardsE
}
{
   <insert_a_suppression_name_here>
   Memcheck:Leak
   match-leak-kinds: possible
   fun:calloc
   fun:_ZL12realizeClassP10objc_class
   fun:_class_getNonMetaClass
   fun:lookUpImpOrForward
   fun:_objc_msgSend_uncached
   fun:-[NSThread init]
   fun:____NSThreads_block_invoke
   fun:_dispatch_client_callout
   fun:dispatch_once_f
   fun:_NSThreadGet0
   fun:_NSInitializePlatform
   fun:call_load_methods
}
{
   <insert_a_suppression_name_here>
   Memcheck:Leak
   match-leak-kinds: possible
   fun:calloc
   fun:_ZL12realizeClassP10objc_class
   fun:_class_getNonMetaClass
   fun:lookUpImpOrForward
   fun:_objc_msgSend_uncached
   fun:-[__NSPlaceholderDictionary initWithCapacity:]
   fun:-[__NSPlaceholderDictionary init]
   fun:-[NSThread init]
   fun:____NSThreads_block_invoke
   fun:_dispatch_client_callout
   fun:dispatch_once_f
   fun:_NSThreadGet0
}
{
   <insert_a_suppression_name_here>
   Memcheck:Leak
   match-leak-kinds: possible
   fun:malloc
   fun:_ZN13list_array_ttI8method_t13method_list_tE11attachListsEPKPS1_j
   fun:_ZL16attachCategoriesP10objc_classP26locstamped_category_list_tb
   fun:_ZL12realizeClassP10objc_class
   fun:_ZL12realizeClassP10objc_class
   fun:look_up_class
   fun:objc_getFutureClass
   fun:__CFInitialize
   fun:_ZN16ImageLoaderMachO11doImageInitERKN11ImageLoader11LinkContextE
   fun:_ZN16ImageLoaderMachO16doInitializationERKN11ImageLoader11LinkContextE
   fun:_ZN11ImageLoader23recursiveInitializationERKNS_11LinkContextEjPKcRNS_21InitializerTimingListERNS_15UninitedUpwardsE
   fun:_ZN11ImageLoader23recursiveInitializationERKNS_11LinkContextEjPKcRNS_21InitializerTimingListERNS_15UninitedUpwardsE
}
{
   <insert_a_suppression_name_here>
   Memcheck:Leak
   match-leak-kinds: possible
   fun:malloc
   fun:_ZN13list_array_ttI8method_t13method_list_tE11attachListsEPKPS1_j
   fun:_ZL16attachCategoriesP10objc_classP26locstamped_category_list_tb
   fun:_ZL12realizeClassP10objc_class
   fun:_ZL12realizeClassP10objc_class
   fun:look_up_class
   fun:objc_getFutureClass
   fun:__CFInitialize
   fun:_ZN16ImageLoaderMachO11doImageInitERKN11ImageLoader11LinkContextE
   fun:_ZN16ImageLoaderMachO16doInitializationERKN11ImageLoader11LinkContextE
   fun:_ZN11ImageLoader23recursiveInitializationERKNS_11LinkContextEjPKcRNS_21InitializerTimingListERNS_15UninitedUpwardsE
   fun:_ZN11ImageLoader23recursiveInitializationERKNS_11LinkContextEjPKcRNS_21InitializerTimingListERNS_15UninitedUpwardsE
}
{
   <insert_a_suppression_name_here>
   Memcheck:Leak
   match-leak-kinds: possible
   fun:realloc
   fun:_ZN13list_array_ttI10property_t15property_list_tE11attachListsEPKPS1_j
   fun:_ZL16attachCategoriesP10objc_classP26locstamped_category_list_tb
   fun:_ZL16remethodizeClassP10objc_class
   fun:_read_images
   fun:map_images_nolock
   fun:map_images
   fun:_ZN4dyldL18notifyBatchPartialE17dyld_image_statesbPFPKcS0_jPK15dyld_image_infoEbb
   fun:_ZN4dyld21registerObjCNotifiersEPFvjPKPKcPKPK11mach_headerEPFvS1_S6_ESC_
   fun:_dyld_objc_notify_register
   fun:_objc_init
   fun:_os_object_init
}
{
   <insert_a_suppression_name_here>
   Memcheck:Leak
   match-leak-kinds: possible
   fun:malloc
   fun:_ZN13list_array_ttI8method_t13method_list_tE11attachListsEPKPS1_j
   fun:_ZL16attachCategoriesP10objc_classP26locstamped_category_list_tb
   fun:_ZL12realizeClassP10objc_class
   fun:_ZL12realizeClassP10objc_class
   fun:_ZL12realizeClassP10objc_class
   fun:look_up_class
   fun:objc_getFutureClass
   fun:__CFInitialize
   fun:_ZN16ImageLoaderMachO11doImageInitERKN11ImageLoader11LinkContextE
   fun:_ZN16ImageLoaderMachO16doInitializationERKN11ImageLoader11LinkContextE
   fun:_ZN11ImageLoader23recursiveInitializationERKNS_11LinkContextEjPKcRNS_21InitializerTimingListERNS_15UninitedUpwardsE
}
{
   <insert_a_suppression_name_here>
   Memcheck:Leak
   match-leak-kinds: possible
   fun:malloc
   fun:_ZN13list_array_ttI8method_t13method_list_tE11attachListsEPKPS1_j
   fun:_ZL16attachCategoriesP10objc_classP26locstamped_category_list_tb
   fun:_ZL12realizeClassP10objc_class
   fun:_ZL12realizeClassP10objc_class
   fun:_ZL12realizeClassP10objc_class
   fun:look_up_class
   fun:objc_getFutureClass
   fun:__CFInitialize
   fun:_ZN16ImageLoaderMachO11doImageInitERKN11ImageLoader11LinkContextE
   fun:_ZN16ImageLoaderMachO16doInitializationERKN11ImageLoader11LinkContextE
   fun:_ZN11ImageLoader23recursiveInitializationERKNS_11LinkContextEjPKcRNS_21InitializerTimingListERNS_15UninitedUpwardsE
}
{
   <insert_a_suppression_name_here>
   Memcheck:Leak
   match-leak-kinds: possible
   fun:malloc
   fun:_ZN13list_array_ttI8method_t13method_list_tE11attachListsEPKPS1_j
   fun:_ZL16attachCategoriesP10objc_classP26locstamped_category_list_tb
   fun:_ZL12realizeClassP10objc_class
   fun:_ZL12realizeClassP10objc_class
   fun:look_up_class
   fun:_NSToDoAtProcessStart
   fun:_NSInitializePlatform
   fun:call_load_methods
   fun:load_images
   fun:_ZN4dyldL12notifySingleE17dyld_image_statesPK11ImageLoaderPNS1_21InitializerTimingListE
   fun:_ZN11ImageLoader23recursiveInitializationERKNS_11LinkContextEjPKcRNS_21InitializerTimingListERNS_15UninitedUpwardsE
}
{
   <insert_a_suppression_name_here>
   Memcheck:Leak
   match-leak-kinds: possible
   fun:malloc
   fun:_ZN13list_array_ttI8method_t13method_list_tE11attachListsEPKPS1_j
   fun:_ZL16attachCategoriesP10objc_classP26locstamped_category_list_tb
   fun:_ZL12realizeClassP10objc_class
   fun:look_up_class
   fun:objc_getFutureClass
   fun:__CFInitialize
   fun:_ZN16ImageLoaderMachO11doImageInitERKN11ImageLoader11LinkContextE
   fun:_ZN16ImageLoaderMachO16doInitializationERKN11ImageLoader11LinkContextE
   fun:_ZN11ImageLoader23recursiveInitializationERKNS_11LinkContextEjPKcRNS_21InitializerTimingListERNS_15UninitedUpwardsE
   fun:_ZN11ImageLoader23recursiveInitializationERKNS_11LinkContextEjPKcRNS_21InitializerTimingListERNS_15UninitedUpwardsE
   fun:_ZN11ImageLoader23recursiveInitializationERKNS_11LinkContextEjPKcRNS_21InitializerTimingListERNS_15UninitedUpwardsE
}
{
   <insert_a_suppression_name_here>
   Memcheck:Leak
   match-leak-kinds: possible
   fun:malloc
   fun:_ZN13list_array_ttI8method_t13method_list_tE11attachListsEPKPS1_j
   fun:_ZL16attachCategoriesP10objc_classP26locstamped_category_list_tb
   fun:_ZL12realizeClassP10objc_class
   fun:_ZL12realizeClassP10objc_class
   fun:_ZL12realizeClassP10objc_class
   fun:look_up_class
   fun:objc_getFutureClass
   fun:__CFInitialize
   fun:_ZN16ImageLoaderMachO11doImageInitERKN11ImageLoader11LinkContextE
   fun:_ZN16ImageLoaderMachO16doInitializationERKN11ImageLoader11LinkContextE
   fun:_ZN11ImageLoader23recursiveInitializationERKNS_11LinkContextEjPKcRNS_21InitializerTimingListERNS_15UninitedUpwardsE
}
{
   <insert_a_suppression_name_here>
   Memcheck:Leak
   match-leak-kinds: possible
   fun:malloc
   fun:_ZN13list_array_ttI8method_t13method_list_tE11attachListsEPKPS1_j
   fun:_ZL16attachCategoriesP10objc_classP26locstamped_category_list_tb
   fun:_ZL12realizeClassP10objc_class
   fun:look_up_class
   fun:objc_getFutureClass
   fun:__CFInitialize
   fun:_ZN16ImageLoaderMachO11doImageInitERKN11ImageLoader11LinkContextE
   fun:_ZN16ImageLoaderMachO16doInitializationERKN11ImageLoader11LinkContextE
   fun:_ZN11ImageLoader23recursiveInitializationERKNS_11LinkContextEjPKcRNS_21InitializerTimingListERNS_15UninitedUpwardsE
   fun:_ZN11ImageLoader23recursiveInitializationERKNS_11LinkContextEjPKcRNS_21InitializerTimingListERNS_15UninitedUpwardsE
   fun:_ZN11ImageLoader23recursiveInitializationERKNS_11LinkContextEjPKcRNS_21InitializerTimingListERNS_15UninitedUpwardsE
}
{
   <insert_a_suppression_name_here>
   Memcheck:Leak
   match-leak-kinds: possible
   fun:malloc
   fun:_ZN13list_array_ttI8method_t13method_list_tE11attachListsEPKPS1_j
   fun:_ZL16attachCategoriesP10objc_classP26locstamped_category_list_tb
   fun:_ZL12realizeClassP10objc_class
   fun:_ZL12realizeClassP10objc_class
   fun:look_up_class
   fun:_NSToDoAtProcessStart
   fun:_NSInitializePlatform
   fun:call_load_methods
   fun:load_images
   fun:_ZN4dyldL12notifySingleE17dyld_image_statesPK11ImageLoaderPNS1_21InitializerTimingListE
   fun:_ZN11ImageLoader23recursiveInitializationERKNS_11LinkContextEjPKcRNS_21InitializerTimingListERNS_15UninitedUpwardsE
}
{
   <insert_a_suppression_name_here>
   Memcheck:Leak
   match-leak-kinds: possible
   fun:realloc
   fun:_ZN13list_array_ttI8method_t13method_list_tE11attachListsEPKPS1_j
   fun:_ZL16attachCategoriesP10objc_classP26locstamped_category_list_tb
   fun:_ZL16remethodizeClassP10objc_class
   fun:_read_images
   fun:map_images_nolock
   fun:map_images
   fun:_ZN4dyldL18notifyBatchPartialE17dyld_image_statesbPFPKcS0_jPK15dyld_image_infoEbb
   fun:_ZN4dyld21registerObjCNotifiersEPFvjPKPKcPKPK11mach_headerEPFvS1_S6_ESC_
   fun:_dyld_objc_notify_register
   fun:_objc_init
   fun:_os_object_init
}
{
   <insert_a_suppression_name_here>
   Memcheck:Leak
   match-leak-kinds: possible
   fun:malloc
   fun:_ZN13list_array_ttI8method_t13method_list_tE11attachListsEPKPS1_j
   fun:_ZL16attachCategoriesP10objc_classP26locstamped_category_list_tb
   fun:_ZL12realizeClassP10objc_class
   fun:_ZL12realizeClassP10objc_class
   fun:_ZL12realizeClassP10objc_class
   fun:look_up_class
   fun:objc_getFutureClass
   fun:__CFInitialize
   fun:_ZN16ImageLoaderMachO11doImageInitERKN11ImageLoader11LinkContextE
   fun:_ZN16ImageLoaderMachO16doInitializationERKN11ImageLoader11LinkContextE
   fun:_ZN11ImageLoader23recursiveInitializationERKNS_11LinkContextEjPKcRNS_21InitializerTimingListERNS_15UninitedUpwardsE
}
{
   <insert_a_suppression_name_here>
   Memcheck:Leak
   match-leak-kinds: possible
   fun:realloc
   fun:_ZL29addUnattachedCategoryForClassP10category_tP10objc_classP11header_info
   fun:_read_images
   fun:map_images_nolock
   fun:map_images
   fun:_ZN4dyldL18notifyBatchPartialE17dyld_image_statesbPFPKcS0_jPK15dyld_image_infoEbb
   fun:_ZN4dyld21registerObjCNotifiersEPFvjPKPKcPKPK11mach_headerEPFvS1_S6_ESC_
   fun:_dyld_objc_notify_register
   fun:_objc_init
   fun:_os_object_init
   fun:libdispatch_init
   fun:libSystem_initializer
}
{
   <insert_a_suppression_name_here>
   Memcheck:Leak
   match-leak-kinds: possible
   fun:realloc
   fun:_ZN13list_array_ttI8method_t13method_list_tE11attachListsEPKPS1_j
   fun:_ZL16attachCategoriesP10objc_classP26locstamped_category_list_tb
   fun:_ZL16remethodizeClassP10objc_class
   fun:_read_images
   fun:map_images_nolock
   fun:map_images
   fun:_ZN4dyldL18notifyBatchPartialE17dyld_image_statesbPFPKcS0_jPK15dyld_image_infoEbb
   fun:_ZN4dyld21registerObjCNotifiersEPFvjPKPKcPKPK11mach_headerEPFvS1_S6_ESC_
   fun:_dyld_objc_notify_register
   fun:_objc_init
   fun:_os_object_init
}
{
   <insert_a_suppression_name_here>
   Memcheck:Leak
   match-leak-kinds: possible
   fun:realloc
   fun:_ZL29addUnattachedCategoryForClassP10category_tP10objc_classP11header_info
   fun:_read_images
   fun:map_images_nolock
   fun:map_images
   fun:_ZN4dyldL18notifyBatchPartialE17dyld_image_statesbPFPKcS0_jPK15dyld_image_infoEbb
   fun:_ZN4dyld21registerObjCNotifiersEPFvjPKPKcPKPK11mach_headerEPFvS1_S6_ESC_
   fun:_dyld_objc_notify_register
   fun:_objc_init
   fun:_os_object_init
   fun:libdispatch_init
   fun:libSystem_initializer
}
{
   <insert_a_suppression_name_here>
   Memcheck:Leak
   match-leak-kinds: possible
   fun:calloc
   fun:map_images_nolock
   fun:map_images
   fun:_ZN4dyldL18notifyBatchPartialE17dyld_image_statesbPFPKcS0_jPK15dyld_image_infoEbb
   fun:_ZN4dyld21registerObjCNotifiersEPFvjPKPKcPKPK11mach_headerEPFvS1_S6_ESC_
   fun:_dyld_objc_notify_register
   fun:_objc_init
   fun:_os_object_init
   fun:libdispatch_init
   fun:libSystem_initializer
   fun:_ZN16ImageLoaderMachO18doModInitFunctionsERKN11ImageLoader11LinkContextE
   fun:_ZN16ImageLoaderMachO16doInitializationERKN11ImageLoader11LinkContextE
}
